(lp0
Vcustomer#c_custkey
p1
aVcustomer#c_custkey,c_mktsegment
p2
aVcustomer#c_mktsegment
p3
aVcustomer#c_mktsegment,c_custkey
p4
aVcustomer#c_nationkey
p5
aVlineitem#l_commitdate
p6
aVlineitem#l_commitdate,l_receiptdate
p7
aVlineitem#l_discount
p8
aVlineitem#l_orderkey
p9
aVlineitem#l_orderkey,l_receiptdate
p10
aVlineitem#l_orderkey,l_returnflag
p11
aVlineitem#l_orderkey,l_shipdate
p12
aVlineitem#l_partkey
p13
aVlineitem#l_partkey,l_quantity
p14
aVlineitem#l_partkey,l_shipdate
p15
aVlineitem#l_partkey,l_suppkey
p16
aVlineitem#l_partkey,l_suppkey,l_shipdate
p17
aVlineitem#l_quantity
p18
aVlineitem#l_receiptdate
p19
aVlineitem#l_receiptdate,l_commitdate
p20
aVlineitem#l_returnflag
p21
aVlineitem#l_returnflag,l_linestatus
p22
aVlineitem#l_returnflag,l_orderkey
p23
aVlineitem#l_shipdate
p24
aVlineitem#l_shipmode
p25
aVlineitem#l_suppkey
p26
aVlineitem#l_suppkey,l_partkey
p27
aVlineitem#l_suppkey,l_partkey,l_shipdate
p28
aVlineitem#l_suppkey,l_shipdate
p29
aVnation#n_name
p30
aVnation#n_name,n_nationkey
p31
aVnation#n_nationkey
p32
aVnation#n_nationkey,n_name
p33
aVnation#n_regionkey
p34
aVorders#o_custkey
p35
aVorders#o_custkey,o_orderdate
p36
aVorders#o_orderdate
p37
aVorders#o_orderkey
p38
aVorders#o_orderkey,o_orderdate
p39
aVorders#o_orderkey,o_orderstatus
p40
aVorders#o_orderpriority
p41
aVorders#o_orderstatus
p42
aVorders#o_orderstatus,o_orderkey
p43
aVorders#o_totalprice,o_orderdate
p44
aVpart#p_brand
p45
aVpart#p_brand,p_container
p46
aVpart#p_brand,p_container,p_partkey
p47
aVpart#p_brand,p_partkey
p48
aVpart#p_brand,p_partkey,p_container
p49
aVpart#p_container
p50
aVpart#p_container,p_brand
p51
aVpart#p_container,p_brand,p_partkey
p52
aVpart#p_container,p_partkey
p53
aVpart#p_container,p_partkey,p_brand
p54
aVpart#p_name
p55
aVpart#p_partkey
p56
aVpart#p_partkey,p_brand
p57
aVpart#p_partkey,p_brand,p_container
p58
aVpart#p_partkey,p_container
p59
aVpart#p_partkey,p_container,p_brand
p60
aVpart#p_partkey,p_name
p61
aVpart#p_partkey,p_type
p62
aVpart#p_type
p63
aVpart#p_type,p_partkey
p64
aVpartsupp#ps_availqty
p65
aVpartsupp#ps_partkey
p66
aVpartsupp#ps_partkey,ps_availqty
p67
aVpartsupp#ps_partkey,ps_suppkey
p68
aVpartsupp#ps_partkey,ps_suppkey,ps_availqty
p69
aVpartsupp#ps_suppkey
p70
aVpartsupp#ps_suppkey,ps_availqty
p71
aVpartsupp#ps_suppkey,ps_partkey
p72
aVpartsupp#ps_suppkey,ps_partkey,ps_availqty
p73
aVregion#r_name
p74
aVregion#r_name,r_regionkey
p75
aVregion#r_regionkey
p76
aVregion#r_regionkey,r_name
p77
aVsupplier#s_name
p78
aVsupplier#s_nationkey
p79
aVsupplier#s_suppkey
p80
a.