(lp0
Vcustomer#c_custkey
p1
aVcustomer#c_custkey,c_mktsegment
p2
aVcustomer#c_mktsegment
p3
aVcustomer#c_mktsegment,c_custkey
p4
aVcustomer#c_nationkey
p5
aVlineitem#l_orderkey
p6
aVlineitem#l_orderkey,l_shipdate
p7
aVlineitem#l_shipdate
p8
aVlineitem#l_suppkey
p9
aVnation#n_nationkey
p10
aVnation#n_regionkey
p11
aVorders#o_custkey
p12
aVorders#o_custkey,o_orderdate
p13
aVorders#o_custkey,o_orderdate,o_orderkey
p14
aVorders#o_custkey,o_orderkey,o_orderdate
p15
aVorders#o_orderdate
p16
aVorders#o_orderkey
p17
aVorders#o_orderkey,o_orderdate
p18
aVorders#o_orderkey,o_orderdate,o_custkey
p19
aVorders#o_orderkey,o_orderdate,o_orderpriority
p20
aVregion#r_name
p21
aVregion#r_name,r_regionkey
p22
aVregion#r_regionkey
p23
aVregion#r_regionkey,r_name
p24
aVsupplier#s_nationkey
p25
aVsupplier#s_suppkey
p26
a.