(lp0
Vcustomer#c_custkey
p1
aVcustomer#c_custkey,c_mktsegment
p2
aVcustomer#c_mktsegment
p3
aVcustomer#c_mktsegment,c_custkey
p4
aVcustomer#c_nationkey
p5
aVlineitem#l_orderkey
p6
aVlineitem#l_orderkey,l_shipdate
p7
aVlineitem#l_quantity
p8
aVlineitem#l_shipdate
p9
aVlineitem#l_suppkey
p10
aVnation#n_nationkey
p11
aVnation#n_regionkey
p12
aVorders#o_custkey
p13
aVorders#o_custkey,o_orderdate
p14
aVorders#o_custkey,o_orderdate,o_orderkey
p15
aVorders#o_custkey,o_orderkey,o_orderdate
p16
aVorders#o_orderdate
p17
aVorders#o_orderkey
p18
aVorders#o_orderkey,o_orderdate
p19
aVorders#o_orderkey,o_orderdate,o_custkey
p20
aVorders#o_orderkey,o_orderdate,o_orderpriority
p21
aVregion#r_name
p22
aVregion#r_name,r_regionkey
p23
aVregion#r_regionkey
p24
aVregion#r_regionkey,r_name
p25
aVsupplier#s_nationkey
p26
aVsupplier#s_suppkey
p27
a.