(lp0
Vcustomer#c_custkey
p1
aVcustomer#c_custkey,c_mktsegment
p2
aVcustomer#c_mktsegment
p3
aVcustomer#c_mktsegment,c_custkey
p4
aVlineitem#l_orderkey
p5
aVlineitem#l_orderkey,l_shipdate
p6
aVlineitem#l_shipdate
p7
aVorders#o_custkey
p8
aVorders#o_custkey,o_orderdate
p9
aVorders#o_orderdate
p10
aVorders#o_orderkey
p11
aVorders#o_orderkey,o_orderdate
p12
aVorders#o_orderkey,o_orderdate,o_orderpriority
p13
a.