(lp0
Vcustomer#c_custkey
p1
aVcustomer#c_custkey,c_mktsegment
p2
aVcustomer#c_mktsegment
p3
aVcustomer#c_mktsegment,c_custkey
p4
aVcustomer#c_nationkey
p5
aVlineitem#l_orderkey
p6
aVlineitem#l_orderkey,l_shipdate
p7
aVlineitem#l_partkey
p8
aVlineitem#l_quantity
p9
aVlineitem#l_shipdate
p10
aVlineitem#l_suppkey
p11
aVnation#n_nationkey
p12
aVnation#n_regionkey
p13
aVorders#o_custkey
p14
aVorders#o_custkey,o_orderdate
p15
aVorders#o_custkey,o_orderdate,o_orderkey
p16
aVorders#o_custkey,o_orderkey,o_orderdate
p17
aVorders#o_orderdate
p18
aVorders#o_orderkey
p19
aVorders#o_orderkey,o_orderdate
p20
aVorders#o_orderkey,o_orderdate,o_custkey
p21
aVorders#o_orderkey,o_orderdate,o_orderpriority
p22
aVpart#p_partkey
p23
aVpart#p_partkey,p_type
p24
aVpart#p_type
p25
aVpart#p_type,p_partkey
p26
aVregion#r_name
p27
aVregion#r_name,r_regionkey
p28
aVregion#r_regionkey
p29
aVregion#r_regionkey,r_name
p30
aVsupplier#s_nationkey
p31
aVsupplier#s_suppkey
p32
a.