(lp0
Vcustomer#c_custkey
p1
aVcustomer#c_custkey,c_mktsegment
p2
aVcustomer#c_mktsegment
p3
aVcustomer#c_mktsegment,c_custkey
p4
aVcustomer#c_nationkey
p5
aVlineitem#l_orderkey
p6
aVlineitem#l_orderkey,l_returnflag
p7
aVlineitem#l_orderkey,l_shipdate
p8
aVlineitem#l_partkey
p9
aVlineitem#l_partkey,l_suppkey
p10
aVlineitem#l_quantity
p11
aVlineitem#l_returnflag
p12
aVlineitem#l_returnflag,l_orderkey
p13
aVlineitem#l_shipdate
p14
aVlineitem#l_suppkey
p15
aVlineitem#l_suppkey,l_partkey
p16
aVnation#n_nationkey
p17
aVnation#n_regionkey
p18
aVorders#o_custkey
p19
aVorders#o_custkey,o_orderdate
p20
aVorders#o_custkey,o_orderdate,o_orderkey
p21
aVorders#o_custkey,o_orderkey,o_orderdate
p22
aVorders#o_orderdate
p23
aVorders#o_orderkey
p24
aVorders#o_orderkey,o_orderdate
p25
aVorders#o_orderkey,o_orderdate,o_custkey
p26
aVorders#o_orderkey,o_orderdate,o_orderpriority
p27
aVpart#p_partkey
p28
aVpart#p_partkey,p_type
p29
aVpart#p_type
p30
aVpart#p_type,p_partkey
p31
aVpartsupp#ps_partkey
p32
aVpartsupp#ps_partkey,ps_suppkey
p33
aVpartsupp#ps_suppkey
p34
aVpartsupp#ps_suppkey,ps_partkey
p35
aVregion#r_name
p36
aVregion#r_name,r_regionkey
p37
aVregion#r_regionkey
p38
aVregion#r_regionkey,r_name
p39
aVsupplier#s_nationkey
p40
aVsupplier#s_suppkey
p41
a.