(lp0
Vcustomer#c_custkey
p1
aVcustomer#c_custkey,c_mktsegment
p2
aVcustomer#c_mktsegment
p3
aVcustomer#c_mktsegment,c_custkey
p4
aVcustomer#c_nationkey
p5
aVlineitem#l_commitdate
p6
aVlineitem#l_commitdate,l_receiptdate
p7
aVlineitem#l_orderkey
p8
aVlineitem#l_orderkey,l_receiptdate
p9
aVlineitem#l_orderkey,l_returnflag
p10
aVlineitem#l_orderkey,l_shipdate
p11
aVlineitem#l_partkey
p12
aVlineitem#l_partkey,l_extendedprice,l_quantity
p13
aVlineitem#l_partkey,l_quantity
p14
aVlineitem#l_partkey,l_quantity,l_extendedprice
p15
aVlineitem#l_partkey,l_shipdate
p16
aVlineitem#l_partkey,l_suppkey
p17
aVlineitem#l_partkey,l_suppkey,l_shipdate
p18
aVlineitem#l_quantity
p19
aVlineitem#l_receiptdate
p20
aVlineitem#l_receiptdate,l_commitdate
p21
aVlineitem#l_returnflag
p22
aVlineitem#l_returnflag,l_orderkey
p23
aVlineitem#l_shipdate
p24
aVlineitem#l_suppkey
p25
aVlineitem#l_suppkey,l_partkey
p26
aVlineitem#l_suppkey,l_partkey,l_shipdate
p27
aVlineitem#l_suppkey,l_shipdate
p28
aVnation#n_name
p29
aVnation#n_name,n_nationkey
p30
aVnation#n_nationkey
p31
aVnation#n_nationkey,n_name
p32
aVnation#n_regionkey
p33
aVorders#o_custkey
p34
aVorders#o_custkey,o_orderdate
p35
aVorders#o_custkey,o_orderdate,o_orderkey
p36
aVorders#o_orderdate
p37
aVorders#o_orderkey
p38
aVorders#o_orderkey,o_orderdate
p39
aVorders#o_orderkey,o_orderdate,o_custkey
p40
aVorders#o_orderkey,o_orderdate,o_orderpriority
p41
aVorders#o_orderkey,o_orderpriority,o_orderdate
p42
aVorders#o_orderkey,o_orderstatus
p43
aVorders#o_orderstatus
p44
aVorders#o_orderstatus,o_orderkey
p45
aVpart#p_brand
p46
aVpart#p_brand,p_container
p47
aVpart#p_brand,p_container,p_partkey
p48
aVpart#p_brand,p_partkey
p49
aVpart#p_brand,p_partkey,p_container
p50
aVpart#p_container
p51
aVpart#p_container,p_brand
p52
aVpart#p_container,p_brand,p_partkey
p53
aVpart#p_container,p_partkey
p54
aVpart#p_container,p_partkey,p_brand
p55
aVpart#p_partkey
p56
aVpart#p_partkey,p_brand
p57
aVpart#p_partkey,p_brand,p_container
p58
aVpart#p_partkey,p_container
p59
aVpart#p_partkey,p_container,p_brand
p60
aVpart#p_partkey,p_type
p61
aVpart#p_type
p62
aVpart#p_type,p_partkey
p63
aVpartsupp#ps_availqty
p64
aVpartsupp#ps_partkey
p65
aVpartsupp#ps_partkey,ps_availqty
p66
aVpartsupp#ps_partkey,ps_availqty,ps_suppkey
p67
aVpartsupp#ps_partkey,ps_suppkey
p68
aVpartsupp#ps_partkey,ps_suppkey,ps_availqty
p69
aVpartsupp#ps_suppkey
p70
aVpartsupp#ps_suppkey,ps_availqty
p71
aVpartsupp#ps_suppkey,ps_availqty,ps_partkey
p72
aVpartsupp#ps_suppkey,ps_partkey
p73
aVpartsupp#ps_suppkey,ps_partkey,ps_availqty
p74
aVregion#r_name
p75
aVregion#r_name,r_regionkey
p76
aVregion#r_regionkey
p77
aVregion#r_regionkey,r_name
p78
aVsupplier#s_nationkey
p79
aVsupplier#s_suppkey
p80
a.