(lp0
Vcustomer#c_custkey
p1
aVcustomer#c_custkey,c_mktsegment
p2
aVcustomer#c_mktsegment
p3
aVcustomer#c_mktsegment,c_custkey
p4
aVcustomer#c_nationkey
p5
aVlineitem#l_orderkey
p6
aVlineitem#l_orderkey,l_shipdate
p7
aVlineitem#l_partkey
p8
aVlineitem#l_partkey,l_suppkey
p9
aVlineitem#l_quantity
p10
aVlineitem#l_shipdate
p11
aVlineitem#l_suppkey
p12
aVlineitem#l_suppkey,l_partkey
p13
aVnation#n_nationkey
p14
aVnation#n_regionkey
p15
aVorders#o_custkey
p16
aVorders#o_custkey,o_orderdate
p17
aVorders#o_custkey,o_orderdate,o_orderkey
p18
aVorders#o_custkey,o_orderkey,o_orderdate
p19
aVorders#o_orderdate
p20
aVorders#o_orderkey
p21
aVorders#o_orderkey,o_orderdate
p22
aVorders#o_orderkey,o_orderdate,o_custkey
p23
aVorders#o_orderkey,o_orderdate,o_orderpriority
p24
aVpart#p_partkey
p25
aVpart#p_partkey,p_type
p26
aVpart#p_type
p27
aVpart#p_type,p_partkey
p28
aVpartsupp#ps_partkey
p29
aVpartsupp#ps_partkey,ps_suppkey
p30
aVpartsupp#ps_suppkey
p31
aVpartsupp#ps_suppkey,ps_partkey
p32
aVregion#r_name
p33
aVregion#r_name,r_regionkey
p34
aVregion#r_regionkey
p35
aVregion#r_regionkey,r_name
p36
aVsupplier#s_nationkey
p37
aVsupplier#s_suppkey
p38
a.